target datalayout = "e-m:e-p270:32:32-p271:32:32-p272:64:64-i64:64-i128:128-f80:128-n8:16:32:64-S128"
target triple = "x86_64-pc-linux-gnu"

%struct.FrameRateContext = type { ptr, %struct.AVRational, i32, double, i32, i32, [4 x i32], [4 x i32], i32, %struct.AVRational, %struct.AVRational, ptr, double, i32, i32, ptr, ptr, ptr, i64, i64, i64, double, i32, i64, i64, ptr }
%struct.AVRational = type { i32, i32 }
%struct.AVFilterContext = type { ptr, ptr, ptr, ptr, ptr, i32, ptr, ptr, i32, ptr, ptr, i32, i32, ptr, ptr, ptr, ptr, i32, ptr, i32, i32 }
%struct.AVFrame = type { [8 x ptr], [8 x i32], ptr, i32, i32, i32, i32, i32, %struct.AVRational, i64, i64, %struct.AVRational, i32, ptr, i32, i32, [8 x ptr], ptr, i32, ptr, i32, i32, i32, i32, i32, i32, i32, i64, ptr, i32, ptr, ptr, i64, i64, i64, i64, ptr, %struct.AVChannelLayout, i64 }
%struct.AVChannelLayout = type { i32, i32, %union.anon.1, ptr }
%union.anon.1 = type { i64 }
%struct.ThreadData = type { ptr, ptr, i16, i16 }

; Function Attrs: nounwind uwtable
define internal i32 @filter_slice(ptr noundef %0, ptr noundef %1, i32 noundef %2, i32 noundef %3) #0 {
  %5 = alloca ptr, align 8
  %6 = alloca ptr, align 8
  %7 = alloca i32, align 4
  %8 = alloca i32, align 4
  %9 = alloca ptr, align 8
  %10 = alloca ptr, align 8
  %11 = alloca ptr, align 8
  %12 = alloca ptr, align 8
  %13 = alloca ptr, align 8
  %14 = alloca i16, align 2
  %15 = alloca i16, align 2
  %16 = alloca i32, align 4
  %17 = alloca i32, align 4
  %18 = alloca i32, align 4
  %19 = alloca ptr, align 8
  %20 = alloca ptr, align 8
  %21 = alloca ptr, align 8
  store ptr %0, ptr %5, align 8, !tbaa !33
  store ptr %1, ptr %6, align 8, !tbaa !112
  store i32 %2, ptr %7, align 4, !tbaa !22
  store i32 %3, ptr %8, align 4, !tbaa !22
  call void @llvm.lifetime.start.p0(i64 8, ptr %9) #11
  %22 = load ptr, ptr %5, align 8, !tbaa !33
  %23 = getelementptr inbounds nuw %struct.AVFilterContext, ptr %22, i32 0, i32 9
  %24 = load ptr, ptr %23, align 8, !tbaa !35
  store ptr %24, ptr %9, align 8, !tbaa !4
  call void @llvm.lifetime.start.p0(i64 8, ptr %10) #11
  %25 = load ptr, ptr %6, align 8, !tbaa !112
  store ptr %25, ptr %10, align 8, !tbaa !113
  call void @llvm.lifetime.start.p0(i64 8, ptr %11) #11
  %26 = load ptr, ptr %9, align 8, !tbaa !4
  %27 = getelementptr inbounds nuw %struct.FrameRateContext, ptr %26, i32 0, i32 15
  %28 = load ptr, ptr %27, align 8, !tbaa !50
  store ptr %28, ptr %11, align 8, !tbaa !51
  call void @llvm.lifetime.start.p0(i64 8, ptr %12) #11
  %29 = load ptr, ptr %10, align 8, !tbaa !113
  %30 = getelementptr inbounds nuw %struct.ThreadData, ptr %29, i32 0, i32 0
  %31 = load ptr, ptr %30, align 8, !tbaa !104
  store ptr %31, ptr %12, align 8, !tbaa !51
  call void @llvm.lifetime.start.p0(i64 8, ptr %13) #11
  %32 = load ptr, ptr %10, align 8, !tbaa !113
  %33 = getelementptr inbounds nuw %struct.ThreadData, ptr %32, i32 0, i32 1
  %34 = load ptr, ptr %33, align 8, !tbaa !106
  store ptr %34, ptr %13, align 8, !tbaa !51
  call void @llvm.lifetime.start.p0(i64 2, ptr %14) #11
  %35 = load ptr, ptr %10, align 8, !tbaa !113
  %36 = getelementptr inbounds nuw %struct.ThreadData, ptr %35, i32 0, i32 2
  %37 = load i16, ptr %36, align 8, !tbaa !108
  store i16 %37, ptr %14, align 2, !tbaa !29
  call void @llvm.lifetime.start.p0(i64 2, ptr %15) #11
  %38 = load ptr, ptr %10, align 8, !tbaa !113
  %39 = getelementptr inbounds nuw %struct.ThreadData, ptr %38, i32 0, i32 3
  %40 = load i16, ptr %39, align 2, !tbaa !107
  store i16 %40, ptr %15, align 2, !tbaa !29
  call void @llvm.lifetime.start.p0(i64 4, ptr %16) #11
  store i32 0, ptr %16, align 4, !tbaa !22
  br label %41

41:                                               ; preds = %178, %4
  %42 = load i32, ptr %16, align 4, !tbaa !22
  %43 = icmp slt i32 %42, 4
  br i1 %43, label %44, label %60

44:                                               ; preds = %41
  %45 = load ptr, ptr %12, align 8, !tbaa !51
  %46 = getelementptr inbounds nuw %struct.AVFrame, ptr %45, i32 0, i32 0
  %47 = load i32, ptr %16, align 4, !tbaa !22
  %48 = sext i32 %47 to i64
  %49 = getelementptr inbounds [8 x ptr], ptr %46, i64 0, i64 %48
  %50 = load ptr, ptr %49, align 8, !tbaa !19
  %51 = icmp ne ptr %50, null
  br i1 %51, label %52, label %60

52:                                               ; preds = %44
  %53 = load ptr, ptr %13, align 8, !tbaa !51
  %54 = getelementptr inbounds nuw %struct.AVFrame, ptr %53, i32 0, i32 0
  %55 = load i32, ptr %16, align 4, !tbaa !22
  %56 = sext i32 %55 to i64
  %57 = getelementptr inbounds [8 x ptr], ptr %54, i64 0, i64 %56
  %58 = load ptr, ptr %57, align 8, !tbaa !19
  %59 = icmp ne ptr %58, null
  br label %60

60:                                               ; preds = %52, %44, %41
  %61 = phi i1 [ false, %44 ], [ false, %41 ], [ %59, %52 ]
  br i1 %61, label %62, label %181

62:                                               ; preds = %60
  call void @llvm.lifetime.start.p0(i64 4, ptr %17) #11
  %63 = load ptr, ptr %9, align 8, !tbaa !4
  %64 = getelementptr inbounds nuw %struct.FrameRateContext, ptr %63, i32 0, i32 7
  %65 = load i32, ptr %16, align 4, !tbaa !22
  %66 = sext i32 %65 to i64
  %67 = getelementptr inbounds [4 x i32], ptr %64, i64 0, i64 %66
  %68 = load i32, ptr %67, align 4, !tbaa !22
  %69 = load i32, ptr %7, align 4, !tbaa !22
  %70 = mul nsw i32 %68, %69
  %71 = load i32, ptr %8, align 4, !tbaa !22
  %72 = sdiv i32 %70, %71
  store i32 %72, ptr %17, align 4, !tbaa !22
  call void @llvm.lifetime.start.p0(i64 4, ptr %18) #11
  %73 = load ptr, ptr %9, align 8, !tbaa !4
  %74 = getelementptr inbounds nuw %struct.FrameRateContext, ptr %73, i32 0, i32 7
  %75 = load i32, ptr %16, align 4, !tbaa !22
  %76 = sext i32 %75 to i64
  %77 = getelementptr inbounds [4 x i32], ptr %74, i64 0, i64 %76
  %78 = load i32, ptr %77, align 4, !tbaa !22
  %79 = load i32, ptr %7, align 4, !tbaa !22
  %80 = add nsw i32 %79, 1
  %81 = mul nsw i32 %78, %80
  %82 = load i32, ptr %8, align 4, !tbaa !22
  %83 = sdiv i32 %81, %82
  store i32 %83, ptr %18, align 4, !tbaa !22
  call void @llvm.lifetime.start.p0(i64 8, ptr %19) #11
  %84 = load ptr, ptr %12, align 8, !tbaa !51
  %85 = getelementptr inbounds nuw %struct.AVFrame, ptr %84, i32 0, i32 0
  %86 = load i32, ptr %16, align 4, !tbaa !22
  %87 = sext i32 %86 to i64
  %88 = getelementptr inbounds [8 x ptr], ptr %85, i64 0, i64 %87
  %89 = load ptr, ptr %88, align 8, !tbaa !19
  %90 = load i32, ptr %17, align 4, !tbaa !22
  %91 = load ptr, ptr %12, align 8, !tbaa !51
  %92 = getelementptr inbounds nuw %struct.AVFrame, ptr %91, i32 0, i32 1
  %93 = load i32, ptr %16, align 4, !tbaa !22
  %94 = sext i32 %93 to i64
  %95 = getelementptr inbounds [8 x i32], ptr %92, i64 0, i64 %94
  %96 = load i32, ptr %95, align 4, !tbaa !22
  %97 = mul nsw i32 %90, %96
  %98 = sext i32 %97 to i64
  %99 = getelementptr inbounds i8, ptr %89, i64 %98
  store ptr %99, ptr %19, align 8, !tbaa !19
  call void @llvm.lifetime.start.p0(i64 8, ptr %20) #11
  %100 = load ptr, ptr %13, align 8, !tbaa !51
  %101 = getelementptr inbounds nuw %struct.AVFrame, ptr %100, i32 0, i32 0
  %102 = load i32, ptr %16, align 4, !tbaa !22
  %103 = sext i32 %102 to i64
  %104 = getelementptr inbounds [8 x ptr], ptr %101, i64 0, i64 %103
  %105 = load ptr, ptr %104, align 8, !tbaa !19
  %106 = load i32, ptr %17, align 4, !tbaa !22
  %107 = load ptr, ptr %13, align 8, !tbaa !51
  %108 = getelementptr inbounds nuw %struct.AVFrame, ptr %107, i32 0, i32 1
  %109 = load i32, ptr %16, align 4, !tbaa !22
  %110 = sext i32 %109 to i64
  %111 = getelementptr inbounds [8 x i32], ptr %108, i64 0, i64 %110
  %112 = load i32, ptr %111, align 4, !tbaa !22
  %113 = mul nsw i32 %106, %112
  %114 = sext i32 %113 to i64
  %115 = getelementptr inbounds i8, ptr %105, i64 %114
  store ptr %115, ptr %20, align 8, !tbaa !19
  call void @llvm.lifetime.start.p0(i64 8, ptr %21) #11
  %116 = load ptr, ptr %11, align 8, !tbaa !51
  %117 = getelementptr inbounds nuw %struct.AVFrame, ptr %116, i32 0, i32 0
  %118 = load i32, ptr %16, align 4, !tbaa !22
  %119 = sext i32 %118 to i64
  %120 = getelementptr inbounds [8 x ptr], ptr %117, i64 0, i64 %119
  %121 = load ptr, ptr %120, align 8, !tbaa !19
  %122 = load i32, ptr %17, align 4, !tbaa !22
  %123 = load ptr, ptr %11, align 8, !tbaa !51
  %124 = getelementptr inbounds nuw %struct.AVFrame, ptr %123, i32 0, i32 1
  %125 = load i32, ptr %16, align 4, !tbaa !22
  %126 = sext i32 %125 to i64
  %127 = getelementptr inbounds [8 x i32], ptr %124, i64 0, i64 %126
  %128 = load i32, ptr %127, align 4, !tbaa !22
  %129 = mul nsw i32 %122, %128
  %130 = sext i32 %129 to i64
  %131 = getelementptr inbounds i8, ptr %121, i64 %130
  store ptr %131, ptr %21, align 8, !tbaa !19
  %132 = load ptr, ptr %9, align 8, !tbaa !4
  %133 = getelementptr inbounds nuw %struct.FrameRateContext, ptr %132, i32 0, i32 25
  %134 = load ptr, ptr %133, align 8, !tbaa !18
  %135 = load ptr, ptr %19, align 8, !tbaa !19
  %136 = load ptr, ptr %12, align 8, !tbaa !51
  %137 = getelementptr inbounds nuw %struct.AVFrame, ptr %136, i32 0, i32 1
  %138 = load i32, ptr %16, align 4, !tbaa !22
  %139 = sext i32 %138 to i64
  %140 = getelementptr inbounds [8 x i32], ptr %137, i64 0, i64 %139
  %141 = load i32, ptr %140, align 4, !tbaa !22
  %142 = sext i32 %141 to i64
  %143 = load ptr, ptr %20, align 8, !tbaa !19
  %144 = load ptr, ptr %13, align 8, !tbaa !51
  %145 = getelementptr inbounds nuw %struct.AVFrame, ptr %144, i32 0, i32 1
  %146 = load i32, ptr %16, align 4, !tbaa !22
  %147 = sext i32 %146 to i64
  %148 = getelementptr inbounds [8 x i32], ptr %145, i64 0, i64 %147
  %149 = load i32, ptr %148, align 4, !tbaa !22
  %150 = sext i32 %149 to i64
  %151 = load ptr, ptr %21, align 8, !tbaa !19
  %152 = load ptr, ptr %11, align 8, !tbaa !51
  %153 = getelementptr inbounds nuw %struct.AVFrame, ptr %152, i32 0, i32 1
  %154 = load i32, ptr %16, align 4, !tbaa !22
  %155 = sext i32 %154 to i64
  %156 = getelementptr inbounds [8 x i32], ptr %153, i64 0, i64 %155
  %157 = load i32, ptr %156, align 4, !tbaa !22
  %158 = sext i32 %157 to i64
  %159 = load ptr, ptr %9, align 8, !tbaa !4
  %160 = getelementptr inbounds nuw %struct.FrameRateContext, ptr %159, i32 0, i32 6
  %161 = load i32, ptr %16, align 4, !tbaa !22
  %162 = sext i32 %161 to i64
  %163 = getelementptr inbounds [4 x i32], ptr %160, i64 0, i64 %162
  %164 = load i32, ptr %163, align 4, !tbaa !22
  %165 = sext i32 %164 to i64
  %166 = load i32, ptr %18, align 4, !tbaa !22
  %167 = load i32, ptr %17, align 4, !tbaa !22
  %168 = sub nsw i32 %166, %167
  %169 = sext i32 %168 to i64
  %170 = load i16, ptr %14, align 2, !tbaa !29
  %171 = zext i16 %170 to i32
  %172 = load i16, ptr %15, align 2, !tbaa !29
  %173 = zext i16 %172 to i32
  %174 = load ptr, ptr %9, align 8, !tbaa !4
  %175 = getelementptr inbounds nuw %struct.FrameRateContext, ptr %174, i32 0, i32 13
  %176 = load i32, ptr %175, align 8, !tbaa !17
  %177 = ashr i32 %176, 1
  call void %134(ptr noundef %135, i64 noundef %142, ptr noundef %143, i64 noundef %150, ptr noundef %151, i64 noundef %158, i64 noundef %165, i64 noundef %169, i32 noundef %171, i32 noundef %173, i32 noundef %177)
  call void @llvm.lifetime.end.p0(i64 8, ptr %21) #11
  call void @llvm.lifetime.end.p0(i64 8, ptr %20) #11
  call void @llvm.lifetime.end.p0(i64 8, ptr %19) #11
  call void @llvm.lifetime.end.p0(i64 4, ptr %18) #11
  call void @llvm.lifetime.end.p0(i64 4, ptr %17) #11
  br label %178

178:                                              ; preds = %62
  %179 = load i32, ptr %16, align 4, !tbaa !22
  %180 = add nsw i32 %179, 1
  store i32 %180, ptr %16, align 4, !tbaa !22
  br label %41, !llvm.loop !115

181:                                              ; preds = %60
  call void @llvm.lifetime.end.p0(i64 4, ptr %16) #11
  call void @llvm.lifetime.end.p0(i64 2, ptr %15) #11
  call void @llvm.lifetime.end.p0(i64 2, ptr %14) #11
  call void @llvm.lifetime.end.p0(i64 8, ptr %13) #11
  call void @llvm.lifetime.end.p0(i64 8, ptr %12) #11
  call void @llvm.lifetime.end.p0(i64 8, ptr %11) #11
  call void @llvm.lifetime.end.p0(i64 8, ptr %10) #11
  call void @llvm.lifetime.end.p0(i64 8, ptr %9) #11
  ret i32 0
}