; Function Attrs: nounwind uwtable
define internal noundef i32 @filter_slice(ptr noundef readonly captures(none) %0, ptr noundef readonly captures(none) %1, i32 noundef %2, i32 noundef %3) #4 {
  %5 = getelementptr inbounds nuw i8, ptr %0, i64 72
  %6 = load ptr, ptr %5, align 8, !tbaa !25
  %7 = getelementptr inbounds nuw i8, ptr %6, i64 120
  %8 = load ptr, ptr %7, align 8, !tbaa !46
  %9 = load ptr, ptr %1, align 8, !tbaa !67
  %10 = getelementptr inbounds nuw i8, ptr %1, i64 8
  %11 = load ptr, ptr %10, align 8, !tbaa !69
  %12 = getelementptr inbounds nuw i8, ptr %1, i64 16
  %13 = load i16, ptr %12, align 8, !tbaa !71
  %14 = getelementptr inbounds nuw i8, ptr %1, i64 18
  %15 = load i16, ptr %14, align 2, !tbaa !70
  %16 = getelementptr inbounds nuw i8, ptr %6, i64 56
  %17 = add nsw i32 %2, 1
  %18 = getelementptr inbounds nuw i8, ptr %9, i64 64
  %19 = getelementptr inbounds nuw i8, ptr %11, i64 64
  %20 = getelementptr inbounds nuw i8, ptr %8, i64 64
  %21 = getelementptr inbounds nuw i8, ptr %6, i64 200
  %22 = getelementptr inbounds nuw i8, ptr %6, i64 40
  %23 = zext i16 %13 to i32
  %24 = zext i16 %15 to i32
  %25 = getelementptr inbounds nuw i8, ptr %6, i64 112
  br label %26

26:                                               ; preds = %4, %32
  %indvars.iv = phi i64 [ 0, %4 ], [ %indvars.iv.next, %32 ]
  %27 = getelementptr inbounds nuw [8 x ptr], ptr %9, i64 0, i64 %indvars.iv
  %28 = load ptr, ptr %27, align 8, !tbaa !62
  %.not = icmp eq ptr %28, null
  br i1 %.not, label %.critedge, label %29

29:                                               ; preds = %26
  %30 = getelementptr inbounds nuw [8 x ptr], ptr %11, i64 0, i64 %indvars.iv
  %31 = load ptr, ptr %30, align 8, !tbaa !62
  %.not54 = icmp eq ptr %31, null
  br i1 %.not54, label %.critedge, label %32

32:                                               ; preds = %29
  %33 = getelementptr inbounds nuw [4 x i32], ptr %16, i64 0, i64 %indvars.iv
  %34 = load i32, ptr %33, align 4, !tbaa !63
  %35 = mul nsw i32 %34, %2
  %36 = sdiv i32 %35, %3
  %37 = mul nsw i32 %34, %17
  %38 = sdiv i32 %37, %3
  %39 = getelementptr inbounds nuw [8 x i32], ptr %18, i64 0, i64 %indvars.iv
  %40 = load i32, ptr %39, align 4, !tbaa !63
  %41 = mul nsw i32 %40, %36
  %42 = sext i32 %41 to i64
  %43 = getelementptr inbounds i8, ptr %28, i64 %42
  %44 = getelementptr inbounds nuw [8 x i32], ptr %19, i64 0, i64 %indvars.iv
  %45 = load i32, ptr %44, align 4, !tbaa !63
  %46 = mul nsw i32 %45, %36
  %47 = sext i32 %46 to i64
  %48 = getelementptr inbounds i8, ptr %31, i64 %47
  %49 = getelementptr inbounds nuw [8 x ptr], ptr %8, i64 0, i64 %indvars.iv
  %50 = load ptr, ptr %49, align 8, !tbaa !62
  %51 = getelementptr inbounds nuw [8 x i32], ptr %20, i64 0, i64 %indvars.iv
  %52 = load i32, ptr %51, align 4, !tbaa !63
  %53 = mul nsw i32 %52, %36
  %54 = sext i32 %53 to i64
  %55 = getelementptr inbounds i8, ptr %50, i64 %54
  %56 = load ptr, ptr %21, align 8, !tbaa !16
  %57 = sext i32 %40 to i64
  %58 = sext i32 %45 to i64
  %59 = sext i32 %52 to i64
  %60 = getelementptr inbounds nuw [4 x i32], ptr %22, i64 0, i64 %indvars.iv
  %61 = load i32, ptr %60, align 4, !tbaa !63
  %62 = sext i32 %61 to i64
  %63 = sub nsw i32 %38, %36
  %64 = sext i32 %63 to i64
  %65 = load i32, ptr %25, align 8, !tbaa !15
  %66 = ashr i32 %65, 1
  tail call void %56(ptr noundef nonnull %43, i64 noundef %57, ptr noundef nonnull %48, i64 noundef %58, ptr noundef %55, i64 noundef %59, i64 noundef %62, i64 noundef %64, i32 noundef %23, i32 noundef %24, i32 noundef %66) #11
  %indvars.iv.next = add nuw nsw i64 %indvars.iv, 1
  %exitcond.not = icmp eq i64 %indvars.iv.next, 4
  br i1 %exitcond.not, label %.critedge, label %26, !llvm.loop !99

.critedge:                                        ; preds = %26, %32, %29
  ret i32 0
}